; Function Attrs: nounwind uwtable
define ptr @l_Lake_instAddDeclFieldOfToLeanMkStr1OfBEqOfConfigField___rarg(ptr noundef %0, ptr noundef %1, ptr noundef %2, ptr noundef %3, ptr noundef %4, ptr noundef %5) #0 {
  %7 = getelementptr inbounds nuw i8, ptr %3, i64 8
  %8 = load ptr, ptr %7, align 8, !tbaa !12
  %9 = ptrtoint ptr %8 to i64
  %10 = and i64 %9, 1
  %.not = icmp eq i64 %10, 0
  br i1 %.not, label %11, label %lean_inc.exit33

11:                                               ; preds = %6
  %.val.i = load i32, ptr %8, align 4, !tbaa !8
  %12 = icmp sgt i32 %.val.i, 0
  br i1 %12, label %13, label %15, !prof !11

13:                                               ; preds = %11
  %14 = add nuw i32 %.val.i, 1
  store i32 %14, ptr %8, align 4, !tbaa !8
  br label %lean_inc.exit33

15:                                               ; preds = %11
  %.not.i42 = icmp eq i32 %.val.i, 0
  br i1 %.not.i42, label %lean_inc.exit33, label %16

16:                                               ; preds = %15
  tail call void @lean_inc_ref_cold(ptr noundef nonnull %8) #6
  br label %lean_inc.exit33

lean_inc.exit33:                                  ; preds = %16, %15, %13, %6
  %17 = ptrtoint ptr %4 to i64
  %18 = and i64 %17, 1
  %.not52 = icmp eq i64 %18, 0
  br i1 %.not52, label %19, label %lean_inc.exit32

19:                                               ; preds = %lean_inc.exit33
  %.val.i43 = load i32, ptr %4, align 4, !tbaa !8
  %20 = icmp sgt i32 %.val.i43, 0
  br i1 %20, label %21, label %23, !prof !11

21:                                               ; preds = %19
  %22 = add nuw i32 %.val.i43, 1
  store i32 %22, ptr %4, align 4, !tbaa !8
  br label %lean_inc.exit32

23:                                               ; preds = %19
  %.not.i44 = icmp eq i32 %.val.i43, 0
  br i1 %.not.i44, label %lean_inc.exit32, label %24

24:                                               ; preds = %23
  tail call void @lean_inc_ref_cold(ptr noundef nonnull %4) #6
  br label %lean_inc.exit32

lean_inc.exit32:                                  ; preds = %24, %23, %21, %lean_inc.exit33
  %25 = tail call ptr @lean_apply_1(ptr noundef %8, ptr noundef %4) #6
  %26 = getelementptr inbounds nuw i8, ptr %3, i64 32
  %27 = load ptr, ptr %26, align 8, !tbaa !12
  %28 = ptrtoint ptr %27 to i64
  %29 = and i64 %28, 1
  %.not53 = icmp eq i64 %29, 0
  br i1 %.not53, label %30, label %lean_inc.exit31

30:                                               ; preds = %lean_inc.exit32
  %.val.i46 = load i32, ptr %27, align 4, !tbaa !8
  %31 = icmp sgt i32 %.val.i46, 0
  br i1 %31, label %32, label %34, !prof !11

32:                                               ; preds = %30
  %33 = add nuw i32 %.val.i46, 1
  store i32 %33, ptr %27, align 4, !tbaa !8
  br label %lean_inc.exit31

34:                                               ; preds = %30
  %.not.i47 = icmp eq i32 %.val.i46, 0
  br i1 %.not.i47, label %lean_inc.exit31, label %35

35:                                               ; preds = %34
  tail call void @lean_inc_ref_cold(ptr noundef nonnull %27) #6
  br label %lean_inc.exit31

lean_inc.exit31:                                  ; preds = %35, %34, %32, %lean_inc.exit32
  %36 = ptrtoint ptr %3 to i64
  %37 = and i64 %36, 1
  %.not54 = icmp eq i64 %37, 0
  br i1 %.not54, label %38, label %lean_dec.exit30

38:                                               ; preds = %lean_inc.exit31
  %39 = load i32, ptr %3, align 4, !tbaa !8
  %40 = icmp sgt i32 %39, 1
  br i1 %40, label %41, label %43, !prof !11

41:                                               ; preds = %38
  %42 = add nsw i32 %39, -1
  store i32 %42, ptr %3, align 4, !tbaa !8
  br label %lean_dec.exit30

43:                                               ; preds = %38
  %.not.i = icmp eq i32 %39, 0
  br i1 %.not.i, label %lean_dec.exit30, label %44

44:                                               ; preds = %43
  tail call void @lean_dec_ref_cold(ptr noundef nonnull %3) #6
  br label %lean_dec.exit30

lean_dec.exit30:                                  ; preds = %44, %43, %41, %lean_inc.exit31
  %45 = tail call ptr @lean_apply_1(ptr noundef %27, ptr noundef %4) #6
  %46 = ptrtoint ptr %25 to i64
  %47 = and i64 %46, 1
  %.not55 = icmp eq i64 %47, 0
  br i1 %.not55, label %48, label %lean_inc.exit

48:                                               ; preds = %lean_dec.exit30
  %.val.i49 = load i32, ptr %25, align 4, !tbaa !8
  %49 = icmp sgt i32 %.val.i49, 0
  br i1 %49, label %50, label %52, !prof !11

50:                                               ; preds = %48
  %51 = add nuw i32 %.val.i49, 1
  store i32 %51, ptr %25, align 4, !tbaa !8
  br label %lean_inc.exit

52:                                               ; preds = %48
  %.not.i50 = icmp eq i32 %.val.i49, 0
  br i1 %.not.i50, label %lean_inc.exit, label %53

53:                                               ; preds = %52
  tail call void @lean_inc_ref_cold(ptr noundef nonnull %25) #6
  br label %lean_inc.exit

lean_inc.exit:                                    ; preds = %53, %52, %50, %lean_dec.exit30
  %54 = tail call ptr @lean_apply_2(ptr noundef %2, ptr noundef %25, ptr noundef %45) #6
  %55 = ptrtoint ptr %54 to i64
  %56 = and i64 %55, 1
  %.not56 = icmp eq i64 %56, 0
  br i1 %.not56, label %57, label %lean_dec.exit29

57:                                               ; preds = %lean_inc.exit
  %58 = load i32, ptr %54, align 4, !tbaa !8
  %59 = icmp sgt i32 %58, 1
  br i1 %59, label %60, label %62, !prof !11

60:                                               ; preds = %57
  %61 = add nsw i32 %58, -1
  store i32 %61, ptr %54, align 4, !tbaa !8
  br label %lean_dec.exit29

62:                                               ; preds = %57
  %.not.i34 = icmp eq i32 %58, 0
  br i1 %.not.i34, label %lean_dec.exit29, label %63

63:                                               ; preds = %62
  tail call void @lean_dec_ref_cold(ptr noundef nonnull %54) #6
  br label %lean_dec.exit29

lean_dec.exit29:                                  ; preds = %63, %62, %60, %lean_inc.exit
  %64 = and i64 %55, 510
  %65 = icmp eq i64 %64, 0
  br i1 %65, label %66, label %74

66:                                               ; preds = %lean_dec.exit29
  %67 = tail call ptr @lean_apply_1(ptr noundef %1, ptr noundef %25) #6
  %68 = tail call ptr @lean_mk_syntax_ident(ptr noundef %0) #6
  %69 = load ptr, ptr @l_Lake_instToLeanArrayMkStr1___rarg___closed__1, align 8, !tbaa !12
  %70 = load ptr, ptr @l_Lake_addDeclFieldCore___closed__4, align 8, !tbaa !12
  %71 = load ptr, ptr @l_Lake_addDeclFieldCore___closed__6, align 8, !tbaa !12
  %72 = tail call ptr @l_Lean_Syntax_node3(ptr noundef %69, ptr noundef %70, ptr noundef %68, ptr noundef %71, ptr noundef %67) #6
  %73 = tail call ptr @lean_array_push(ptr noundef %5, ptr noundef %72) #6
  br label %lean_dec.exit

74:                                               ; preds = %lean_dec.exit29
  br i1 %.not55, label %75, label %lean_dec.exit28

75:                                               ; preds = %74
  %76 = load i32, ptr %25, align 4, !tbaa !8
  %77 = icmp sgt i32 %76, 1
  br i1 %77, label %78, label %80, !prof !11

78:                                               ; preds = %75
  %79 = add nsw i32 %76, -1
  store i32 %79, ptr %25, align 4, !tbaa !8
  br label %lean_dec.exit28

80:                                               ; preds = %75
  %.not.i36 = icmp eq i32 %76, 0
  br i1 %.not.i36, label %lean_dec.exit28, label %81

81:                                               ; preds = %80
  tail call void @lean_dec_ref_cold(ptr noundef nonnull %25) #6
  br label %lean_dec.exit28

lean_dec.exit28:                                  ; preds = %81, %80, %78, %74
  %82 = ptrtoint ptr %1 to i64
  %83 = and i64 %82, 1
  %.not57 = icmp eq i64 %83, 0
  br i1 %.not57, label %84, label %lean_dec.exit27

84:                                               ; preds = %lean_dec.exit28
  %85 = load i32, ptr %1, align 4, !tbaa !8
  %86 = icmp sgt i32 %85, 1
  br i1 %86, label %87, label %89, !prof !11

87:                                               ; preds = %84
  %88 = add nsw i32 %85, -1
  store i32 %88, ptr %1, align 4, !tbaa !8
  br label %lean_dec.exit27

89:                                               ; preds = %84
  %.not.i38 = icmp eq i32 %85, 0
  br i1 %.not.i38, label %lean_dec.exit27, label %90

90:                                               ; preds = %89
  tail call void @lean_dec_ref_cold(ptr noundef nonnull %1) #6
  br label %lean_dec.exit27

lean_dec.exit27:                                  ; preds = %90, %89, %87, %lean_dec.exit28
  %91 = ptrtoint ptr %0 to i64
  %92 = and i64 %91, 1
  %.not58 = icmp eq i64 %92, 0
  br i1 %.not58, label %93, label %lean_dec.exit

93:                                               ; preds = %lean_dec.exit27
  %94 = load i32, ptr %0, align 4, !tbaa !8
  %95 = icmp sgt i32 %94, 1
  br i1 %95, label %96, label %98, !prof !11

96:                                               ; preds = %93
  %97 = add nsw i32 %94, -1
  store i32 %97, ptr %0, align 4, !tbaa !8
  br label %lean_dec.exit

98:                                               ; preds = %93
  %.not.i40 = icmp eq i32 %94, 0
  br i1 %.not.i40, label %lean_dec.exit, label %99

99:                                               ; preds = %98
  tail call void @lean_dec_ref_cold(ptr noundef nonnull %0) #6
  br label %lean_dec.exit

lean_dec.exit:                                    ; preds = %lean_dec.exit27, %96, %98, %99, %66
  %.0 = phi ptr [ %73, %66 ], [ %5, %99 ], [ %5, %98 ], [ %5, %96 ], [ %5, %lean_dec.exit27 ]
  ret ptr %.0
}